; Function Attrs: mustprogress nounwind uwtable
define hidden noundef i64 @_ZN9CodeCache20unallocated_capacityEv() local_unnamed_addr #1 align 2 {
  %1 = load ptr, ptr @_ZN9CodeCache16_allocable_heapsE, align 8
  %2 = load i32, ptr %1, align 4
  %.not7 = icmp eq i32 %2, 0
  br i1 %.not7, label %._crit_edge, label %.lr.ph

.lr.ph:                                           ; preds = %0
  %3 = getelementptr inbounds i8, ptr %1, i64 8
  br label %4

4:                                                ; preds = %.lr.ph, %4
  %indvars.iv = phi i64 [ 0, %.lr.ph ], [ %indvars.iv.next, %4 ]
  %.09 = phi i64 [ 0, %.lr.ph ], [ %11, %4 ]
  %5 = load ptr, ptr %3, align 8
  %6 = getelementptr inbounds ptr, ptr %5, i64 %indvars.iv
  %7 = load ptr, ptr %6, align 8
  %8 = tail call noundef i64 @_ZNK8CodeHeap12max_capacityEv(ptr noundef nonnull align 8 dereferenceable(336) %7) #20
  %9 = tail call noundef i64 @_ZNK8CodeHeap18allocated_capacityEv(ptr noundef nonnull align 8 dereferenceable(336) %7) #20
  %10 = add i64 %8, %.09
  %11 = sub i64 %10, %9
  %indvars.iv.next = add nuw nsw i64 %indvars.iv, 1
  %12 = load ptr, ptr @_ZN9CodeCache16_allocable_heapsE, align 8
  %13 = load i32, ptr %12, align 4
  %14 = zext i32 %13 to i64
  %.not = icmp eq i64 %indvars.iv.next, %14
  br i1 %.not, label %._crit_edge, label %4, !llvm.loop !35

._crit_edge:                                      ; preds = %4, %0
  %.0.lcssa = phi i64 [ 0, %0 ], [ %11, %4 ]
  ret i64 %.0.lcssa
}